target datalayout = "e-m:e-p270:32:32-p271:32:32-p272:64:64-i64:64-i128:128-f80:128-n8:16:32:64-S128"
target triple = "x86_64-pc-linux-gnu"

@H5FL_init_g = global i8 0, align 1
@H5_libterm_g = external global i8, align 1
@H5FL_reg_lst_mem_lim = internal global i64 65536, align 8
@H5FL_reg_glb_mem_lim = internal global i64 1048576, align 8
@H5FL_blk_lst_mem_lim = internal global i64 1048576, align 8
@H5FL_blk_glb_mem_lim = internal global i64 16777216, align 8
@H5FL_arr_lst_mem_lim = internal global i64 262144, align 8
@H5FL_arr_glb_mem_lim = internal global i64 4194304, align 8
@H5FL_fac_lst_mem_lim = internal global i64 1048576, align 8
@H5FL_fac_glb_mem_lim = internal global i64 16777216, align 8

; Function Attrs: nounwind uwtable
define i32 @H5FL_set_free_list_limits(i32 noundef %0, i32 noundef %1, i32 noundef %2, i32 noundef %3, i32 noundef %4, i32 noundef %5, i32 noundef %6, i32 noundef %7) #0 {
  %9 = alloca i32, align 4
  %10 = alloca i32, align 4
  %11 = alloca i32, align 4
  %12 = alloca i32, align 4
  %13 = alloca i32, align 4
  %14 = alloca i32, align 4
  %15 = alloca i32, align 4
  %16 = alloca i32, align 4
  %17 = alloca i32, align 4
  store i32 %0, ptr %9, align 4, !tbaa !3
  store i32 %1, ptr %10, align 4, !tbaa !3
  store i32 %2, ptr %11, align 4, !tbaa !3
  store i32 %3, ptr %12, align 4, !tbaa !3
  store i32 %4, ptr %13, align 4, !tbaa !3
  store i32 %5, ptr %14, align 4, !tbaa !3
  store i32 %6, ptr %15, align 4, !tbaa !3
  store i32 %7, ptr %16, align 4, !tbaa !3
  call void @llvm.lifetime.start.p0(i64 4, ptr %17) #9
  store i32 0, ptr %17, align 4, !tbaa !3
  %18 = load i8, ptr @H5FL_init_g, align 1, !tbaa !7, !range !9, !noundef !10
  %19 = trunc i8 %18 to i1
  br i1 %19, label %24, label %20

20:                                               ; preds = %8
  %21 = load i8, ptr @H5_libterm_g, align 1, !tbaa !7, !range !9, !noundef !10
  %22 = trunc i8 %21 to i1
  %23 = xor i1 %22, true
  br label %24

24:                                               ; preds = %20, %8
  %25 = phi i1 [ false, %8 ], [ %23, %20 ]
  %26 = xor i1 %25, true
  %27 = xor i1 %26, true
  %28 = zext i1 %27 to i32
  %29 = sext i32 %28 to i64
  %30 = call i64 @llvm.expect.i64(i64 %29, i64 0)
  %31 = icmp ne i64 %30, 0
  br i1 %31, label %32, label %33

32:                                               ; preds = %24
  store i8 1, ptr @H5FL_init_g, align 1, !tbaa !7
  br label %33

33:                                               ; preds = %32, %24
  %34 = load i8, ptr @H5FL_init_g, align 1, !tbaa !7, !range !9, !noundef !10
  %35 = trunc i8 %34 to i1
  br i1 %35, label %40, label %36

36:                                               ; preds = %33
  %37 = load i8, ptr @H5_libterm_g, align 1, !tbaa !7, !range !9, !noundef !10
  %38 = trunc i8 %37 to i1
  %39 = xor i1 %38, true
  br label %40

40:                                               ; preds = %36, %33
  %41 = phi i1 [ true, %33 ], [ %39, %36 ]
  %42 = xor i1 %41, true
  %43 = xor i1 %42, true
  %44 = zext i1 %43 to i32
  %45 = sext i32 %44 to i64
  %46 = call i64 @llvm.expect.i64(i64 %45, i64 1)
  %47 = icmp ne i64 %46, 0
  br i1 %47, label %48, label %113

48:                                               ; preds = %40
  %49 = load i32, ptr %9, align 4, !tbaa !3
  %50 = icmp eq i32 %49, -1
  br i1 %50, label %51, label %52

51:                                               ; preds = %48
  br label %55

52:                                               ; preds = %48
  %53 = load i32, ptr %9, align 4, !tbaa !3
  %54 = sext i32 %53 to i64
  br label %55

55:                                               ; preds = %52, %51
  %56 = phi i64 [ 4294967295, %51 ], [ %54, %52 ]
  store i64 %56, ptr @H5FL_reg_glb_mem_lim, align 8, !tbaa !11
  %57 = load i32, ptr %10, align 4, !tbaa !3
  %58 = icmp eq i32 %57, -1
  br i1 %58, label %59, label %60

59:                                               ; preds = %55
  br label %63

60:                                               ; preds = %55
  %61 = load i32, ptr %10, align 4, !tbaa !3
  %62 = sext i32 %61 to i64
  br label %63

63:                                               ; preds = %60, %59
  %64 = phi i64 [ 4294967295, %59 ], [ %62, %60 ]
  store i64 %64, ptr @H5FL_reg_lst_mem_lim, align 8, !tbaa !11
  %65 = load i32, ptr %11, align 4, !tbaa !3
  %66 = icmp eq i32 %65, -1
  br i1 %66, label %67, label %68

67:                                               ; preds = %63
  br label %71

68:                                               ; preds = %63
  %69 = load i32, ptr %11, align 4, !tbaa !3
  %70 = sext i32 %69 to i64
  br label %71

71:                                               ; preds = %68, %67
  %72 = phi i64 [ 4294967295, %67 ], [ %70, %68 ]
  store i64 %72, ptr @H5FL_arr_glb_mem_lim, align 8, !tbaa !11
  %73 = load i32, ptr %12, align 4, !tbaa !3
  %74 = icmp eq i32 %73, -1
  br i1 %74, label %75, label %76

75:                                               ; preds = %71
  br label %79

76:                                               ; preds = %71
  %77 = load i32, ptr %12, align 4, !tbaa !3
  %78 = sext i32 %77 to i64
  br label %79

79:                                               ; preds = %76, %75
  %80 = phi i64 [ 4294967295, %75 ], [ %78, %76 ]
  store i64 %80, ptr @H5FL_arr_lst_mem_lim, align 8, !tbaa !11
  %81 = load i32, ptr %13, align 4, !tbaa !3
  %82 = icmp eq i32 %81, -1
  br i1 %82, label %83, label %84

83:                                               ; preds = %79
  br label %87

84:                                               ; preds = %79
  %85 = load i32, ptr %13, align 4, !tbaa !3
  %86 = sext i32 %85 to i64
  br label %87

87:                                               ; preds = %84, %83
  %88 = phi i64 [ 4294967295, %83 ], [ %86, %84 ]
  store i64 %88, ptr @H5FL_blk_glb_mem_lim, align 8, !tbaa !11
  %89 = load i32, ptr %14, align 4, !tbaa !3
  %90 = icmp eq i32 %89, -1
  br i1 %90, label %91, label %92

91:                                               ; preds = %87
  br label %95

92:                                               ; preds = %87
  %93 = load i32, ptr %14, align 4, !tbaa !3
  %94 = sext i32 %93 to i64
  br label %95

95:                                               ; preds = %92, %91
  %96 = phi i64 [ 4294967295, %91 ], [ %94, %92 ]
  store i64 %96, ptr @H5FL_blk_lst_mem_lim, align 8, !tbaa !11
  %97 = load i32, ptr %15, align 4, !tbaa !3
  %98 = icmp eq i32 %97, -1
  br i1 %98, label %99, label %100

99:                                               ; preds = %95
  br label %103

100:                                              ; preds = %95
  %101 = load i32, ptr %15, align 4, !tbaa !3
  %102 = sext i32 %101 to i64
  br label %103

103:                                              ; preds = %100, %99
  %104 = phi i64 [ 4294967295, %99 ], [ %102, %100 ]
  store i64 %104, ptr @H5FL_fac_glb_mem_lim, align 8, !tbaa !11
  %105 = load i32, ptr %16, align 4, !tbaa !3
  %106 = icmp eq i32 %105, -1
  br i1 %106, label %107, label %108

107:                                              ; preds = %103
  br label %111

108:                                              ; preds = %103
  %109 = load i32, ptr %16, align 4, !tbaa !3
  %110 = sext i32 %109 to i64
  br label %111

111:                                              ; preds = %108, %107
  %112 = phi i64 [ 4294967295, %107 ], [ %110, %108 ]
  store i64 %112, ptr @H5FL_fac_lst_mem_lim, align 8, !tbaa !11
  br label %113

113:                                              ; preds = %111, %40
  %114 = load i32, ptr %17, align 4, !tbaa !3
  call void @llvm.lifetime.end.p0(i64 4, ptr %17) #9
  ret i32 %114
}