; Function Attrs: mustprogress nofree norecurse nosync nounwind willreturn memory(readwrite, argmem: none, inaccessiblemem: none) uwtable
define noundef i32 @H5FL_set_free_list_limits(i32 noundef %0, i32 noundef %1, i32 noundef %2, i32 noundef %3, i32 noundef %4, i32 noundef %5, i32 noundef %6, i32 noundef %7) local_unnamed_addr #5 {
  %9 = load i8, ptr @H5FL_init_g, align 1, !tbaa !3, !range !7, !noundef !8
  %10 = trunc nuw i8 %9 to i1
  %11 = load i8, ptr @H5_libterm_g, align 1, !range !7
  %12 = trunc nuw i8 %11 to i1
  %13 = select i1 %10, i1 true, i1 %12
  br i1 %13, label %14, label %.thread, !prof !15

.thread:                                          ; preds = %8
  store i8 1, ptr @H5FL_init_g, align 1, !tbaa !3
  br label %17

14:                                               ; preds = %8
  %15 = xor i1 %12, true
  %16 = select i1 %10, i1 true, i1 %15
  br i1 %16, label %17, label %42, !prof !87

17:                                               ; preds = %.thread, %14
  %18 = icmp eq i32 %0, -1
  %19 = sext i32 %0 to i64
  %20 = select i1 %18, i64 4294967295, i64 %19
  store i64 %20, ptr @H5FL_reg_glb_mem_lim, align 8, !tbaa !86
  %21 = icmp eq i32 %1, -1
  %22 = sext i32 %1 to i64
  %23 = select i1 %21, i64 4294967295, i64 %22
  store i64 %23, ptr @H5FL_reg_lst_mem_lim, align 8, !tbaa !86
  %24 = icmp eq i32 %2, -1
  %25 = sext i32 %2 to i64
  %26 = select i1 %24, i64 4294967295, i64 %25
  store i64 %26, ptr @H5FL_arr_glb_mem_lim, align 8, !tbaa !86
  %27 = icmp eq i32 %3, -1
  %28 = sext i32 %3 to i64
  %29 = select i1 %27, i64 4294967295, i64 %28
  store i64 %29, ptr @H5FL_arr_lst_mem_lim, align 8, !tbaa !86
  %30 = icmp eq i32 %4, -1
  %31 = sext i32 %4 to i64
  %32 = select i1 %30, i64 4294967295, i64 %31
  store i64 %32, ptr @H5FL_blk_glb_mem_lim, align 8, !tbaa !86
  %33 = icmp eq i32 %5, -1
  %34 = sext i32 %5 to i64
  %35 = select i1 %33, i64 4294967295, i64 %34
  store i64 %35, ptr @H5FL_blk_lst_mem_lim, align 8, !tbaa !86
  %36 = icmp eq i32 %6, -1
  %37 = sext i32 %6 to i64
  %38 = select i1 %36, i64 4294967295, i64 %37
  store i64 %38, ptr @H5FL_fac_glb_mem_lim, align 8, !tbaa !86
  %39 = icmp eq i32 %7, -1
  %40 = sext i32 %7 to i64
  %41 = select i1 %39, i64 4294967295, i64 %40
  store i64 %41, ptr @H5FL_fac_lst_mem_lim, align 8, !tbaa !86
  br label %42

42:                                               ; preds = %17, %14
  ret i32 0
}